; Function Attrs: mustprogress nofree norecurse nosync nounwind willreturn memory(argmem: read) uwtable
define dso_local noundef zeroext i1 @_ZNK7Builder15AlreadyUpToDateEv(ptr noundef nonnull readonly align 8 captures(none) dereferenceable(356) %0) local_unnamed_addr #15 align 2 {
  %2 = getelementptr inbounds nuw i8, ptr %0, i64 132
  %3 = load i32, ptr %2, align 4, !tbaa !40
  %4 = icmp slt i32 %3, 1
  %5 = getelementptr inbounds nuw i8, ptr %0, i64 128
  %6 = load i32, ptr %5, align 8
  %7 = icmp slt i32 %6, 1
  %.not2 = select i1 %4, i1 true, i1 %7
  ret i1 %.not2
}